target datalayout = "e-m:e-p270:32:32-p271:32:32-p272:64:64-i64:64-i128:128-f80:128-n8:16:32:64-S128"
target triple = "x86_64-pc-linux-gnu"

%"class.cvc5::internal::theory::sets::TheorySetsRewriter" = type <{ %"class.cvc5::internal::theory::TheoryRewriter", i8, i8, [6 x i8] }>
%"class.cvc5::internal::theory::TheoryRewriter" = type { ptr, ptr, %"class.std::map" }
%"class.std::map" = type { %"class.std::_Rb_tree" }
%"class.std::_Rb_tree" = type { %"struct.std::_Rb_tree<cvc5::internal::theory::TheoryRewriteCtx, std::pair<const cvc5::internal::theory::TheoryRewriteCtx, std::vector<cvc5::ProofRewriteRule>>, std::_Select1st<std::pair<const cvc5::internal::theory::TheoryRewriteCtx, std::vector<cvc5::ProofRewriteRule>>>, std::less<cvc5::internal::theory::TheoryRewriteCtx>>::_Rb_tree_impl" }
%"struct.std::_Rb_tree<cvc5::internal::theory::TheoryRewriteCtx, std::pair<const cvc5::internal::theory::TheoryRewriteCtx, std::vector<cvc5::ProofRewriteRule>>, std::_Select1st<std::pair<const cvc5::internal::theory::TheoryRewriteCtx, std::vector<cvc5::ProofRewriteRule>>>, std::less<cvc5::internal::theory::TheoryRewriteCtx>>::_Rb_tree_impl" = type { [8 x i8], %"struct.std::_Rb_tree_header" }
%"struct.std::_Rb_tree_header" = type { %"struct.std::_Rb_tree_node_base", i64 }
%"struct.std::_Rb_tree_node_base" = type { i32, ptr, ptr, ptr }

@_ZTVN4cvc58internal6theory14TheoryRewriterE = external unnamed_addr constant { [13 x ptr] }, align 8

; Function Attrs: noinline noreturn nounwind uwtable
define linkonce_odr hidden void @__clang_call_terminate(ptr noundef %0) #10 comdat {
  %2 = call ptr @__cxa_begin_catch(ptr %0) #3
  call void @_ZSt9terminatev() #18
  unreachable
}

; Function Attrs: mustprogress nounwind uwtable
define linkonce_odr hidden void @_ZNSt15_Rb_tree_header8_M_resetEv(ptr noundef nonnull align 8 dereferenceable(40) %0) #5 comdat align 2 {
  %2 = alloca ptr, align 8
  store ptr %0, ptr %2, align 8, !tbaa !167
  %3 = load ptr, ptr %2, align 8
  %4 = getelementptr inbounds nuw %"struct.std::_Rb_tree_header", ptr %3, i32 0, i32 0
  %5 = getelementptr inbounds nuw %"struct.std::_Rb_tree_node_base", ptr %4, i32 0, i32 1
  store ptr null, ptr %5, align 8, !tbaa !172
  %6 = getelementptr inbounds nuw %"struct.std::_Rb_tree_header", ptr %3, i32 0, i32 0
  %7 = getelementptr inbounds nuw %"struct.std::_Rb_tree_header", ptr %3, i32 0, i32 0
  %8 = getelementptr inbounds nuw %"struct.std::_Rb_tree_node_base", ptr %7, i32 0, i32 2
  store ptr %6, ptr %8, align 8, !tbaa !173
  %9 = getelementptr inbounds nuw %"struct.std::_Rb_tree_header", ptr %3, i32 0, i32 0
  %10 = getelementptr inbounds nuw %"struct.std::_Rb_tree_header", ptr %3, i32 0, i32 0
  %11 = getelementptr inbounds nuw %"struct.std::_Rb_tree_node_base", ptr %10, i32 0, i32 3
  store ptr %9, ptr %11, align 8, !tbaa !174
  %12 = getelementptr inbounds nuw %"struct.std::_Rb_tree_header", ptr %3, i32 0, i32 1
  store i64 0, ptr %12, align 8, !tbaa !175
  ret void
}

; Function Attrs: mustprogress nounwind uwtable
define linkonce_odr hidden void @_ZNSt15__new_allocatorISt13_Rb_tree_nodeISt4pairIKN4cvc58internal6theory16TheoryRewriteCtxESt6vectorINS2_16ProofRewriteRuleESaIS8_EEEEEC2Ev(ptr noundef nonnull align 1 dereferenceable(1) %0) unnamed_addr #5 comdat align 2 {
  %2 = alloca ptr, align 8
  store ptr %0, ptr %2, align 8, !tbaa !170
  ret void
}

; Function Attrs: mustprogress nounwind uwtable
define linkonce_odr hidden void @_ZNSt15_Rb_tree_headerC2Ev(ptr noundef nonnull align 8 dereferenceable(40) %0) unnamed_addr #5 comdat align 2 personality ptr @__gxx_personality_v0 {
  %2 = alloca ptr, align 8
  store ptr %0, ptr %2, align 8, !tbaa !167
  %3 = load ptr, ptr %2, align 8
  %4 = getelementptr inbounds nuw %"struct.std::_Rb_tree_header", ptr %3, i32 0, i32 0
  %5 = getelementptr inbounds nuw %"struct.std::_Rb_tree_node_base", ptr %4, i32 0, i32 0
  store i32 0, ptr %5, align 8, !tbaa !169
  invoke void @_ZNSt15_Rb_tree_header8_M_resetEv(ptr noundef nonnull align 8 dereferenceable(40) %3)
          to label %6 unwind label %7

6:                                                ; preds = %1
  ret void

7:                                                ; preds = %1
  %8 = landingpad { ptr, i32 }
          catch ptr null
  %9 = extractvalue { ptr, i32 } %8, 0
  call void @__clang_call_terminate(ptr %9) #18
  unreachable
}

; Function Attrs: mustprogress nounwind uwtable
define linkonce_odr hidden void @_ZNSt20_Rb_tree_key_compareISt4lessIN4cvc58internal6theory16TheoryRewriteCtxEEEC2Ev(ptr noundef nonnull align 1 dereferenceable(1) %0) unnamed_addr #5 comdat align 2 {
  %2 = alloca ptr, align 8
  store ptr %0, ptr %2, align 8, !tbaa !165
  ret void
}

; Function Attrs: mustprogress nounwind uwtable
define linkonce_odr hidden void @_ZNSaISt13_Rb_tree_nodeISt4pairIKN4cvc58internal6theory16TheoryRewriteCtxESt6vectorINS1_16ProofRewriteRuleESaIS7_EEEEEC2Ev(ptr noundef nonnull align 1 dereferenceable(1) %0) unnamed_addr #5 comdat align 2 {
  %2 = alloca ptr, align 8
  store ptr %0, ptr %2, align 8, !tbaa !163
  %3 = load ptr, ptr %2, align 8
  call void @_ZNSt15__new_allocatorISt13_Rb_tree_nodeISt4pairIKN4cvc58internal6theory16TheoryRewriteCtxESt6vectorINS2_16ProofRewriteRuleESaIS8_EEEEEC2Ev(ptr noundef nonnull align 1 dereferenceable(1) %3) #3
  ret void
}

; Function Attrs: mustprogress nounwind uwtable
define linkonce_odr hidden void @_ZNSt8_Rb_treeIN4cvc58internal6theory16TheoryRewriteCtxESt4pairIKS3_St6vectorINS0_16ProofRewriteRuleESaIS7_EEESt10_Select1stISA_ESt4lessIS3_ESaISA_EE13_Rb_tree_implISE_Lb1EEC2Ev(ptr noundef nonnull align 8 dereferenceable(48) %0) unnamed_addr #5 comdat align 2 {
  %2 = alloca ptr, align 8
  store ptr %0, ptr %2, align 8, !tbaa !161
  %3 = load ptr, ptr %2, align 8
  call void @_ZNSaISt13_Rb_tree_nodeISt4pairIKN4cvc58internal6theory16TheoryRewriteCtxESt6vectorINS1_16ProofRewriteRuleESaIS7_EEEEEC2Ev(ptr noundef nonnull align 1 dereferenceable(1) %3) #3
  call void @_ZNSt20_Rb_tree_key_compareISt4lessIN4cvc58internal6theory16TheoryRewriteCtxEEEC2Ev(ptr noundef nonnull align 1 dereferenceable(1) %3) #3
  %4 = getelementptr inbounds i8, ptr %3, i64 8
  call void @_ZNSt15_Rb_tree_headerC2Ev(ptr noundef nonnull align 8 dereferenceable(40) %4) #3
  ret void
}

; Function Attrs: mustprogress nounwind uwtable
define linkonce_odr hidden void @_ZNSt8_Rb_treeIN4cvc58internal6theory16TheoryRewriteCtxESt4pairIKS3_St6vectorINS0_16ProofRewriteRuleESaIS7_EEESt10_Select1stISA_ESt4lessIS3_ESaISA_EEC2Ev(ptr noundef nonnull align 8 dereferenceable(48) %0) unnamed_addr #5 comdat align 2 {
  %2 = alloca ptr, align 8
  store ptr %0, ptr %2, align 8, !tbaa !159
  %3 = load ptr, ptr %2, align 8
  %4 = getelementptr inbounds nuw %"class.std::_Rb_tree", ptr %3, i32 0, i32 0
  call void @_ZNSt8_Rb_treeIN4cvc58internal6theory16TheoryRewriteCtxESt4pairIKS3_St6vectorINS0_16ProofRewriteRuleESaIS7_EEESt10_Select1stISA_ESt4lessIS3_ESaISA_EE13_Rb_tree_implISE_Lb1EEC2Ev(ptr noundef nonnull align 8 dereferenceable(48) %4) #3
  ret void
}

; Function Attrs: mustprogress nounwind uwtable
define linkonce_odr hidden void @_ZNSt3mapIN4cvc58internal6theory16TheoryRewriteCtxESt6vectorINS0_16ProofRewriteRuleESaIS5_EESt4lessIS3_ESaISt4pairIKS3_S7_EEEC2Ev(ptr noundef nonnull align 8 dereferenceable(48) %0) unnamed_addr #5 comdat align 2 {
  %2 = alloca ptr, align 8
  store ptr %0, ptr %2, align 8, !tbaa !157
  %3 = load ptr, ptr %2, align 8
  %4 = getelementptr inbounds nuw %"class.std::map", ptr %3, i32 0, i32 0
  call void @_ZNSt8_Rb_treeIN4cvc58internal6theory16TheoryRewriteCtxESt4pairIKS3_St6vectorINS0_16ProofRewriteRuleESaIS7_EEESt10_Select1stISA_ESt4lessIS3_ESaISA_EEC2Ev(ptr noundef nonnull align 8 dereferenceable(48) %4) #3
  ret void
}

; Function Attrs: mustprogress nounwind uwtable
define linkonce_odr hidden void @_ZN4cvc58internal6theory14TheoryRewriterC2EPNS0_11NodeManagerE(ptr noundef nonnull align 8 dereferenceable(64) %0, ptr noundef %1) unnamed_addr #5 comdat align 2 {
  %3 = alloca ptr, align 8
  %4 = alloca ptr, align 8
  store ptr %0, ptr %3, align 8, !tbaa !30
  store ptr %1, ptr %4, align 8, !tbaa !8
  %5 = load ptr, ptr %3, align 8
  store ptr getelementptr inbounds inrange(-16, 88) ({ [13 x ptr] }, ptr @_ZTVN4cvc58internal6theory14TheoryRewriterE, i32 0, i32 0, i32 2), ptr %5, align 8, !tbaa !12
  %6 = getelementptr inbounds nuw %"class.cvc5::internal::theory::TheoryRewriter", ptr %5, i32 0, i32 1
  %7 = load ptr, ptr %4, align 8, !tbaa !8
  store ptr %7, ptr %6, align 8, !tbaa !32
  %8 = getelementptr inbounds nuw %"class.cvc5::internal::theory::TheoryRewriter", ptr %5, i32 0, i32 2
  call void @_ZNSt3mapIN4cvc58internal6theory16TheoryRewriteCtxESt6vectorINS0_16ProofRewriteRuleESaIS5_EESt4lessIS3_ESaISt4pairIKS3_S7_EEEC2Ev(ptr noundef nonnull align 8 dereferenceable(48) %8) #3
  ret void
}

; Function Attrs: mustprogress uwtable
define hidden void @_ZN4cvc58internal6theory4sets18TheorySetsRewriterC2EPNS0_11NodeManagerEbb(ptr noundef nonnull align 8 dereferenceable(66) %0, ptr noundef %1, i1 noundef zeroext %2, i1 noundef zeroext %3) unnamed_addr #4 align 2 personality ptr @__gxx_personality_v0 {
  %5 = alloca ptr, align 8
  %6 = alloca ptr, align 8
  %7 = alloca i8, align 1
  %8 = alloca i8, align 1
  %9 = alloca ptr, align 8
  %10 = alloca i32, align 4
  store ptr %0, ptr %5, align 8, !tbaa !3
  store ptr %1, ptr %6, align 8, !tbaa !8
  %11 = zext i1 %2 to i8
  store i8 %11, ptr %7, align 1, !tbaa !10
  %12 = zext i1 %3 to i8
  store i8 %12, ptr %8, align 1, !tbaa !10
  %13 = load ptr, ptr %5, align 8
  %14 = load ptr, ptr %6, align 8, !tbaa !8
  call void @_ZN4cvc58internal6theory14TheoryRewriterC2EPNS0_11NodeManagerE(ptr noundef nonnull align 8 dereferenceable(64) %13, ptr noundef %14)
  store ptr getelementptr inbounds inrange(-16, 88) ({ [13 x ptr] }, ptr @_ZTVN4cvc58internal6theory4sets18TheorySetsRewriterE, i32 0, i32 0, i32 2), ptr %13, align 8, !tbaa !12
  %15 = getelementptr inbounds nuw %"class.cvc5::internal::theory::sets::TheorySetsRewriter", ptr %13, i32 0, i32 1
  %16 = load i8, ptr %7, align 1, !tbaa !10, !range !14, !noundef !15
  %17 = trunc i8 %16 to i1
  %18 = zext i1 %17 to i8
  store i8 %18, ptr %15, align 8, !tbaa !16
  %19 = getelementptr inbounds nuw %"class.cvc5::internal::theory::sets::TheorySetsRewriter", ptr %13, i32 0, i32 2
  %20 = load i8, ptr %8, align 1, !tbaa !10, !range !14, !noundef !15
  %21 = trunc i8 %20 to i1
  %22 = zext i1 %21 to i8
  store i8 %22, ptr %19, align 1, !tbaa !29
  invoke void @_ZN4cvc58internal6theory14TheoryRewriter24registerProofRewriteRuleENS_16ProofRewriteRuleENS1_16TheoryRewriteCtxE(ptr noundef nonnull align 8 dereferenceable(64) %13, i32 noundef 78, i32 noundef 1)
          to label %23 unwind label %29

23:                                               ; preds = %4
  invoke void @_ZN4cvc58internal6theory14TheoryRewriter24registerProofRewriteRuleENS_16ProofRewriteRuleENS1_16TheoryRewriteCtxE(ptr noundef nonnull align 8 dereferenceable(64) %13, i32 noundef 79, i32 noundef 0)
          to label %24 unwind label %29

24:                                               ; preds = %23
  invoke void @_ZN4cvc58internal6theory14TheoryRewriter24registerProofRewriteRuleENS_16ProofRewriteRuleENS1_16TheoryRewriteCtxE(ptr noundef nonnull align 8 dereferenceable(64) %13, i32 noundef 74, i32 noundef 2)
          to label %25 unwind label %29

25:                                               ; preds = %24
  invoke void @_ZN4cvc58internal6theory14TheoryRewriter24registerProofRewriteRuleENS_16ProofRewriteRuleENS1_16TheoryRewriteCtxE(ptr noundef nonnull align 8 dereferenceable(64) %13, i32 noundef 75, i32 noundef 2)
          to label %26 unwind label %29

26:                                               ; preds = %25
  invoke void @_ZN4cvc58internal6theory14TheoryRewriter24registerProofRewriteRuleENS_16ProofRewriteRuleENS1_16TheoryRewriteCtxE(ptr noundef nonnull align 8 dereferenceable(64) %13, i32 noundef 76, i32 noundef 2)
          to label %27 unwind label %29

27:                                               ; preds = %26
  invoke void @_ZN4cvc58internal6theory14TheoryRewriter24registerProofRewriteRuleENS_16ProofRewriteRuleENS1_16TheoryRewriteCtxE(ptr noundef nonnull align 8 dereferenceable(64) %13, i32 noundef 77, i32 noundef 2)
          to label %28 unwind label %29

28:                                               ; preds = %27
  ret void

29:                                               ; preds = %27, %26, %25, %24, %23, %4
  %30 = landingpad { ptr, i32 }
          cleanup
  %31 = extractvalue { ptr, i32 } %30, 0
  store ptr %31, ptr %9, align 8
  %32 = extractvalue { ptr, i32 } %30, 1
  store i32 %32, ptr %10, align 4
  call void @_ZN4cvc58internal6theory14TheoryRewriterD2Ev(ptr noundef nonnull align 8 dereferenceable(64) %13) #3
  br label %33

33:                                               ; preds = %29
  %34 = load ptr, ptr %9, align 8
  %35 = load i32, ptr %10, align 4
  %36 = insertvalue { ptr, i32 } poison, ptr %34, 0
  %37 = insertvalue { ptr, i32 } %36, i32 %35, 1
  resume { ptr, i32 } %37
}