; Function Attrs: mustprogress uwtable
define hidden void @_ZN4cvc58internal6theory4sets18TheorySetsRewriterC2EPNS0_11NodeManagerEbb(ptr noundef nonnull align 8 dereferenceable(66) initializes((8, 16), (24, 28), (32, 40)) %0, ptr noundef %1, i1 noundef zeroext %2, i1 noundef zeroext %3) unnamed_addr #3 align 2 personality ptr @__gxx_personality_v0 {
  %5 = zext i1 %2 to i8
  %6 = zext i1 %3 to i8
  %7 = getelementptr inbounds nuw i8, ptr %0, i64 8
  store ptr %1, ptr %7, align 8, !tbaa !3
  %8 = getelementptr inbounds nuw i8, ptr %0, i64 24
  store i32 0, ptr %8, align 8, !tbaa !19
  %9 = getelementptr inbounds nuw i8, ptr %0, i64 32
  store ptr null, ptr %9, align 8, !tbaa !20
  %10 = getelementptr inbounds nuw i8, ptr %0, i64 40
  store ptr %8, ptr %10, align 8, !tbaa !21
  %11 = getelementptr inbounds nuw i8, ptr %0, i64 48
  store ptr %8, ptr %11, align 8, !tbaa !22
  %12 = getelementptr inbounds nuw i8, ptr %0, i64 56
  store i64 0, ptr %12, align 8, !tbaa !23
  store ptr getelementptr inbounds nuw inrange(-16, 88) (i8, ptr @_ZTVN4cvc58internal6theory4sets18TheorySetsRewriterE, i64 16), ptr %0, align 8, !tbaa !24
  %13 = getelementptr inbounds nuw i8, ptr %0, i64 64
  store i8 %5, ptr %13, align 8, !tbaa !26
  %14 = getelementptr inbounds nuw i8, ptr %0, i64 65
  store i8 %6, ptr %14, align 1, !tbaa !29
  invoke void @_ZN4cvc58internal6theory14TheoryRewriter24registerProofRewriteRuleENS_16ProofRewriteRuleENS1_16TheoryRewriteCtxE(ptr noundef nonnull align 8 dereferenceable(64) %0, i32 noundef 78, i32 noundef 1)
          to label %15 unwind label %21

15:                                               ; preds = %4
  invoke void @_ZN4cvc58internal6theory14TheoryRewriter24registerProofRewriteRuleENS_16ProofRewriteRuleENS1_16TheoryRewriteCtxE(ptr noundef nonnull align 8 dereferenceable(64) %0, i32 noundef 79, i32 noundef 0)
          to label %16 unwind label %21

16:                                               ; preds = %15
  invoke void @_ZN4cvc58internal6theory14TheoryRewriter24registerProofRewriteRuleENS_16ProofRewriteRuleENS1_16TheoryRewriteCtxE(ptr noundef nonnull align 8 dereferenceable(64) %0, i32 noundef 74, i32 noundef 2)
          to label %17 unwind label %21

17:                                               ; preds = %16
  invoke void @_ZN4cvc58internal6theory14TheoryRewriter24registerProofRewriteRuleENS_16ProofRewriteRuleENS1_16TheoryRewriteCtxE(ptr noundef nonnull align 8 dereferenceable(64) %0, i32 noundef 75, i32 noundef 2)
          to label %18 unwind label %21

18:                                               ; preds = %17
  invoke void @_ZN4cvc58internal6theory14TheoryRewriter24registerProofRewriteRuleENS_16ProofRewriteRuleENS1_16TheoryRewriteCtxE(ptr noundef nonnull align 8 dereferenceable(64) %0, i32 noundef 76, i32 noundef 2)
          to label %19 unwind label %21

19:                                               ; preds = %18
  invoke void @_ZN4cvc58internal6theory14TheoryRewriter24registerProofRewriteRuleENS_16ProofRewriteRuleENS1_16TheoryRewriteCtxE(ptr noundef nonnull align 8 dereferenceable(64) %0, i32 noundef 77, i32 noundef 2)
          to label %20 unwind label %21

20:                                               ; preds = %19
  ret void

21:                                               ; preds = %19, %18, %17, %16, %15, %4
  %22 = landingpad { ptr, i32 }
          cleanup
  tail call void @_ZN4cvc58internal6theory14TheoryRewriterD2Ev(ptr noundef nonnull align 8 dereferenceable(64) %0) #20
  resume { ptr, i32 } %22
}